target datalayout = "e-m:e-p270:32:32-p271:32:32-p272:64:64-i64:64-i128:128-f80:128-n8:16:32:64-S128"
target triple = "x86_64-pc-linux-gnu"

%"class.ozz::options::Option" = type { ptr, ptr, ptr, i8, i8, ptr }

; Function Attrs: mustprogress uwtable
define dso_local noundef zeroext i1 @_ZN3ozz7options6Option8ValidateEi(ptr noundef nonnull align 8 dereferenceable(40) %0, i32 noundef %1) #4 align 2 {
  %3 = alloca i1, align 1
  %4 = alloca ptr, align 8
  %5 = alloca i32, align 4
  store ptr %0, ptr %4, align 8, !tbaa !26
  store i32 %1, ptr %5, align 4, !tbaa !32
  %6 = load ptr, ptr %4, align 8
  %7 = getelementptr inbounds nuw %"class.ozz::options::Option", ptr %6, i32 0, i32 5
  %8 = load ptr, ptr %7, align 8, !tbaa !68
  %9 = icmp ne ptr %8, null
  br i1 %9, label %10, label %15

10:                                               ; preds = %2
  %11 = getelementptr inbounds nuw %"class.ozz::options::Option", ptr %6, i32 0, i32 5
  %12 = load ptr, ptr %11, align 8, !tbaa !68
  %13 = load i32, ptr %5, align 4, !tbaa !32
  %14 = call noundef zeroext i1 %12(ptr noundef nonnull align 8 dereferenceable(40) %6, i32 noundef %13)
  store i1 %14, ptr %3, align 1
  br label %16

15:                                               ; preds = %2
  store i1 true, ptr %3, align 1
  br label %16

16:                                               ; preds = %15, %10
  %17 = load i1, ptr %3, align 1
  ret i1 %17
}