; Function Attrs: mustprogress uwtable
define dso_local noundef zeroext i1 @_ZN3ozz7options6Option8ValidateEi(ptr noundef nonnull align 8 dereferenceable(40) %0, i32 noundef %1) local_unnamed_addr #3 align 2 {
  %3 = getelementptr inbounds nuw i8, ptr %0, i64 32
  %4 = load ptr, ptr %3, align 8, !tbaa !14
  %.not = icmp eq ptr %4, null
  br i1 %.not, label %7, label %5

5:                                                ; preds = %2
  %6 = tail call noundef zeroext i1 %4(ptr noundef nonnull align 8 dereferenceable(40) %0, i32 noundef %1)
  br label %7

7:                                                ; preds = %2, %5
  %.0 = phi i1 [ %6, %5 ], [ true, %2 ]
  ret i1 %.0
}